target datalayout = "e-m:e-p270:32:32-p271:32:32-p272:64:64-i64:64-i128:128-f80:128-n8:16:32:64-S128"
target triple = "x86_64-unknown-linux-gnu"

%"class.icu_75::ChoiceFormat" = type { %"class.icu_75::NumberFormat.base", i32, %"class.icu_75::MessagePattern" }
%"class.icu_75::NumberFormat.base" = type { %"class.icu_75::Format.base", i8, i32, i32, i32, i32, i8, i8, [4 x i16], i32 }
%"class.icu_75::Format.base" = type <{ %"class.icu_75::UObject", [157 x i8], [157 x i8] }>
%"class.icu_75::UObject" = type { ptr }
%"class.icu_75::MessagePattern" = type <{ %"class.icu_75::UObject", i32, [4 x i8], %"class.icu_75::UnicodeString", ptr, ptr, i32, [4 x i8], ptr, ptr, i32, i8, i8, i8, i8 }>
%"class.icu_75::UnicodeString" = type { %"class.icu_75::Replaceable", %"union.icu_75::UnicodeString::StackBufferOrFields" }
%"class.icu_75::Replaceable" = type { %"class.icu_75::UObject" }
%"union.icu_75::UnicodeString::StackBufferOrFields" = type { %struct.anon.0, [32 x i8] }
%struct.anon.0 = type { i16, i32, i32, ptr }

; Function Attrs: mustprogress uwtable
define noundef zeroext i1 @_ZNK6icu_7512ChoiceFormateqERKNS_6FormatE(ptr noundef nonnull align 8 dereferenceable(488) %this, ptr noundef nonnull align 8 dereferenceable(322) %that) unnamed_addr #1 align 2 {
entry:
  %retval = alloca i1, align 1
  %this.addr = alloca ptr, align 8
  %that.addr = alloca ptr, align 8
  %thatAlias = alloca ptr, align 8
  store ptr %this, ptr %this.addr, align 8
  store ptr %that, ptr %that.addr, align 8
  %this1 = load ptr, ptr %this.addr, align 8
  %0 = load ptr, ptr %that.addr, align 8
  %cmp = icmp eq ptr %this1, %0
  br i1 %cmp, label %if.then, label %if.end

if.then:                                          ; preds = %entry
  store i1 true, ptr %retval, align 1
  br label %return

if.end:                                           ; preds = %entry
  %1 = load ptr, ptr %that.addr, align 8
  %call = call noundef zeroext i1 @_ZNK6icu_7512NumberFormateqERKNS_6FormatE(ptr noundef nonnull align 8 dereferenceable(356) %this1, ptr noundef nonnull align 8 dereferenceable(322) %1)
  br i1 %call, label %if.end3, label %if.then2

if.then2:                                         ; preds = %if.end
  store i1 false, ptr %retval, align 1
  br label %return

if.end3:                                          ; preds = %if.end
  %2 = load ptr, ptr %that.addr, align 8
  store ptr %2, ptr %thatAlias, align 8
  %msgPattern = getelementptr inbounds %"class.icu_75::ChoiceFormat", ptr %this1, i32 0, i32 2
  %3 = load ptr, ptr %thatAlias, align 8
  %msgPattern4 = getelementptr inbounds %"class.icu_75::ChoiceFormat", ptr %3, i32 0, i32 2
  %call5 = call noundef zeroext i1 @_ZNK6icu_7514MessagePatterneqERKS0_(ptr noundef nonnull align 8 dereferenceable(127) %msgPattern, ptr noundef nonnull align 8 dereferenceable(127) %msgPattern4)
  store i1 %call5, ptr %retval, align 1
  br label %return

return:                                           ; preds = %if.end3, %if.then2, %if.then
  %4 = load i1, ptr %retval, align 1
  ret i1 %4
}