; Function Attrs: mustprogress uwtable
define noundef zeroext i1 @_ZNK6icu_7512ChoiceFormateqERKNS_6FormatE(ptr noundef nonnull align 8 dereferenceable(488) %this, ptr noundef nonnull align 8 dereferenceable(322) %that) unnamed_addr #1 align 2 {
entry:
  %cmp = icmp eq ptr %this, %that
  br i1 %cmp, label %return, label %if.end

if.end:                                           ; preds = %entry
  %call = tail call noundef zeroext i1 @_ZNK6icu_7512NumberFormateqERKNS_6FormatE(ptr noundef nonnull align 8 dereferenceable(356) %this, ptr noundef nonnull align 8 dereferenceable(322) %that)
  br i1 %call, label %if.end3, label %return

if.end3:                                          ; preds = %if.end
  %msgPattern = getelementptr inbounds i8, ptr %this, i64 360
  %msgPattern4 = getelementptr inbounds i8, ptr %that, i64 360
  %call5 = tail call noundef zeroext i1 @_ZNK6icu_7514MessagePatterneqERKS0_(ptr noundef nonnull align 8 dereferenceable(127) %msgPattern, ptr noundef nonnull align 8 dereferenceable(127) %msgPattern4)
  br label %return

return:                                           ; preds = %if.end, %entry, %if.end3
  %retval.0 = phi i1 [ %call5, %if.end3 ], [ true, %entry ], [ false, %if.end ]
  ret i1 %retval.0
}